; Function Attrs: nounwind uwtable
define ptr @l_Std_Time_Internal_Bounded_LE_byMod___boxed(ptr noundef %0, ptr noundef %1, ptr noundef readnone captures(none) %2) local_unnamed_addr #1 {
  %4 = ptrtoint ptr %0 to i64
  %5 = and i64 %4, 1
  %.not.i.i = icmp eq i64 %5, 0
  %.pre12 = ptrtoint ptr %1 to i64
  %.pre = and i64 %.pre12, 1
  %6 = icmp eq i64 %.pre, 0
  br i1 %.not.i.i, label %l_Std_Time_Internal_Bounded_LE_byMod.exit, label %7, !prof !10

7:                                                ; preds = %3
  br i1 %6, label %l_Std_Time_Internal_Bounded_LE_byMod.exit.thread16, label %9, !prof !10

l_Std_Time_Internal_Bounded_LE_byMod.exit.thread16: ; preds = %7
  %8 = tail call ptr @lean_int_big_mod(ptr noundef %0, ptr noundef %1) #5
  br label %22

9:                                                ; preds = %7
  %10 = shl i64 %.pre12, 31
  %11 = icmp ult i64 %10, 4294967296
  br i1 %11, label %lean_dec.exit, label %12

12:                                               ; preds = %9
  %13 = ashr i64 %10, 32
  %14 = shl i64 %4, 31
  %15 = ashr i64 %14, 32
  %16 = srem i64 %15, %13
  %17 = shl nsw i64 %16, 1
  %18 = and i64 %17, 8589934590
  %19 = or disjoint i64 %18, 1
  %20 = inttoptr i64 %19 to ptr
  br label %lean_dec.exit

l_Std_Time_Internal_Bounded_LE_byMod.exit:        ; preds = %3
  %21 = tail call ptr @lean_int_big_mod(ptr noundef %0, ptr noundef %1) #5
  br i1 %6, label %22, label %lean_dec.exit6.thread

22:                                               ; preds = %l_Std_Time_Internal_Bounded_LE_byMod.exit.thread16, %l_Std_Time_Internal_Bounded_LE_byMod.exit
  %23 = phi ptr [ %8, %l_Std_Time_Internal_Bounded_LE_byMod.exit.thread16 ], [ %21, %l_Std_Time_Internal_Bounded_LE_byMod.exit ]
  %24 = load i32, ptr %1, align 4, !tbaa !4
  %25 = icmp sgt i32 %24, 1
  br i1 %25, label %26, label %28, !prof !9

26:                                               ; preds = %22
  %27 = add nsw i32 %24, -1
  store i32 %27, ptr %1, align 4, !tbaa !4
  br label %lean_dec.exit6

28:                                               ; preds = %22
  %.not.i = icmp eq i32 %24, 0
  br i1 %.not.i, label %lean_dec.exit6, label %29

29:                                               ; preds = %28
  tail call void @lean_dec_ref_cold(ptr noundef nonnull %1) #5
  br label %lean_dec.exit6

lean_dec.exit6:                                   ; preds = %29, %28, %26
  br i1 %.not.i.i, label %lean_dec.exit6.thread, label %lean_dec.exit

lean_dec.exit6.thread:                            ; preds = %l_Std_Time_Internal_Bounded_LE_byMod.exit, %lean_dec.exit6
  %.1.i.i1520 = phi ptr [ %23, %lean_dec.exit6 ], [ %21, %l_Std_Time_Internal_Bounded_LE_byMod.exit ]
  %30 = load i32, ptr %0, align 4, !tbaa !4
  %31 = icmp sgt i32 %30, 1
  br i1 %31, label %32, label %34, !prof !9

32:                                               ; preds = %lean_dec.exit6.thread
  %33 = add nsw i32 %30, -1
  store i32 %33, ptr %0, align 4, !tbaa !4
  br label %lean_dec.exit

34:                                               ; preds = %lean_dec.exit6.thread
  %.not.i7 = icmp eq i32 %30, 0
  br i1 %.not.i7, label %lean_dec.exit, label %35

35:                                               ; preds = %34
  tail call void @lean_dec_ref_cold(ptr noundef nonnull %0) #5
  br label %lean_dec.exit

lean_dec.exit:                                    ; preds = %9, %12, %35, %34, %32, %lean_dec.exit6
  %.1.i.i1519 = phi ptr [ %.1.i.i1520, %35 ], [ %.1.i.i1520, %34 ], [ %.1.i.i1520, %32 ], [ %23, %lean_dec.exit6 ], [ %20, %12 ], [ %0, %9 ]
  ret ptr %.1.i.i1519
}